target datalayout = "e-m:e-p270:32:32-p271:32:32-p272:64:64-i64:64-i128:128-f80:128-n8:16:32:64-S128"
target triple = "x86_64-pc-linux-gnu"

%struct.decoration = type { ptr, i32, i32, ptr }
%struct.strbuf = type { i64, i64, ptr }
%struct.string_list = type { ptr, i64, i64, i8, ptr }
%struct.rev_info = type { ptr, %struct.object_array, ptr, %struct.object_array, %struct.rev_cmdline_info, %struct.list_objects_filter_options, %struct.ref_exclusions, ptr, ptr, ptr, %struct.pathspec, i32, i32, i32, i32, i64, i32, i32, %struct.date_mode, i32, i32, i32, i32, ptr, i32, i32, ptr, ptr, i32, ptr, ptr, %struct.ident_split, ptr, i32, ptr, ptr, ptr, i32, i32, i32, ptr, %struct.grep_opt, ptr, i32, i32, i64, i64, i64, i32, i32, ptr, ptr, ptr, %struct.diff_options, %struct.diff_options, ptr, %struct.decoration, %struct.decoration, %struct.decoration, %struct.display_notes_opt, ptr, ptr, ptr, ptr, ptr, i32, ptr, i32, i32, i32, %struct.decoration, ptr, ptr, ptr, ptr, ptr, ptr, ptr, i32, ptr, i32, ptr, %struct.oidset }
%struct.object_array = type { i32, i32, ptr }
%struct.rev_cmdline_info = type { i32, i32, ptr }
%struct.list_objects_filter_options = type { %struct.strbuf, i32, i8, ptr, i64, i64, i32, i64, i64, ptr }
%struct.ref_exclusions = type { %struct.string_list, %struct.strvec, i8 }
%struct.strvec = type { ptr, i64, i64 }
%struct.pathspec = type { i32, i8, i32, i32, ptr }
%struct.date_mode = type { i32, i32, ptr }
%struct.ident_split = type { ptr, ptr, ptr, ptr, ptr, ptr, ptr, ptr }
%struct.grep_opt = type { ptr, ptr, ptr, ptr, ptr, ptr, i32, i32, i32, i32, i32, i32, i32, i32, i32, i32, i32, i32, i32, i32, i32, i32, i32, i32, i32, i32, i32, i32, i32, i32, i32, i32, [9 x [75 x i8]], i32, i32, i32, i32, i32, i32, i32, ptr, ptr, ptr }
%struct.diff_options = type { ptr, ptr, i32, i32, ptr, i32, ptr, i64, i64, ptr, ptr, ptr, ptr, %struct.diff_flags, i32, i32, i32, i32, i32, i32, i32, i32, i32, i32, i32, i32, i32, i32, i32, i32, i32, i32, i32, i32, i32, i32, ptr, i32, ptr, i32, i32, ptr, i64, i64, i32, i32, i32, i32, ptr, i32, i32, ptr, i32, i32, ptr, ptr, i32, [3 x i8], %struct.pathspec, ptr, ptr, ptr, ptr, ptr, ptr, ptr, ptr, i32, ptr, i32, i32, ptr, ptr, i32 }
%struct.diff_flags = type { i32, i32, i32, i32, i32, i32, i32, i32, i32, i32, i32, i32, i32, i32, i32, i32, i32, i32, i32, i32, i32, i32, i32, i32, i32, i32, i32, i32, i32, i32, i32, i32, i32, i32, i32 }
%struct.display_notes_opt = type { i32, %struct.string_list }
%struct.oidset = type { %struct.kh_oid_set }
%struct.kh_oid_set = type { i32, i32, i32, i32, ptr, ptr, ptr }

@.str.13 = private unnamed_addr constant [1 x i8] zeroinitializer, align 1
@.str.49 = private unnamed_addr constant [11 x i8] c"%s%.*s%s%s\00", align 1
@.str.50 = private unnamed_addr constant [2 x i8] c"\0A\00", align 1

; Function Attrs: nounwind uwtable
define internal void @show_sig_lines(ptr noundef %0, i32 noundef %1, ptr noundef %2) #0 {
  %4 = alloca ptr, align 8
  %5 = alloca i32, align 4
  %6 = alloca ptr, align 8
  %7 = alloca ptr, align 8
  %8 = alloca ptr, align 8
  %9 = alloca ptr, align 8
  store ptr %0, ptr %4, align 8, !tbaa !71
  store i32 %1, ptr %5, align 4, !tbaa !15
  store ptr %2, ptr %6, align 8, !tbaa !9
  call void @llvm.lifetime.start.p0(i64 8, ptr %7) #10
  call void @llvm.lifetime.start.p0(i64 8, ptr %8) #10
  call void @llvm.lifetime.start.p0(i64 8, ptr %9) #10
  %10 = load ptr, ptr %4, align 8, !tbaa !71
  %11 = getelementptr inbounds nuw %struct.rev_info, ptr %10, i32 0, i32 53
  %12 = getelementptr inbounds nuw %struct.diff_options, ptr %11, i32 0, i32 16
  %13 = load i32, ptr %12, align 4, !tbaa !118
  %14 = load i32, ptr %5, align 4, !tbaa !15
  %15 = icmp ne i32 %14, 0
  %16 = select i1 %15, i32 7, i32 3
  %17 = call ptr @diff_get_color(i32 noundef %13, i32 noundef %16)
  store ptr %17, ptr %7, align 8, !tbaa !9
  %18 = load ptr, ptr %4, align 8, !tbaa !71
  %19 = getelementptr inbounds nuw %struct.rev_info, ptr %18, i32 0, i32 53
  %20 = getelementptr inbounds nuw %struct.diff_options, ptr %19, i32 0, i32 16
  %21 = load i32, ptr %20, align 4, !tbaa !118
  %22 = call ptr @diff_get_color(i32 noundef %21, i32 noundef 0)
  store ptr %22, ptr %8, align 8, !tbaa !9
  br label %23

23:                                               ; preds = %61, %3
  %24 = load ptr, ptr %6, align 8, !tbaa !9
  %25 = load i8, ptr %24, align 1, !tbaa !67
  %26 = icmp ne i8 %25, 0
  br i1 %26, label %27, label %63

27:                                               ; preds = %23
  %28 = load ptr, ptr %6, align 8, !tbaa !9
  %29 = call ptr @strchrnul(ptr noundef %28, i32 noundef 10) #11
  store ptr %29, ptr %9, align 8, !tbaa !9
  %30 = load ptr, ptr %4, align 8, !tbaa !71
  %31 = getelementptr inbounds nuw %struct.rev_info, ptr %30, i32 0, i32 53
  %32 = getelementptr inbounds nuw %struct.diff_options, ptr %31, i32 0, i32 55
  %33 = load ptr, ptr %32, align 8, !tbaa !117
  %34 = load ptr, ptr %7, align 8, !tbaa !9
  %35 = load ptr, ptr %9, align 8, !tbaa !9
  %36 = load ptr, ptr %6, align 8, !tbaa !9
  %37 = ptrtoint ptr %35 to i64
  %38 = ptrtoint ptr %36 to i64
  %39 = sub i64 %37, %38
  %40 = trunc i64 %39 to i32
  %41 = load ptr, ptr %6, align 8, !tbaa !9
  %42 = load ptr, ptr %8, align 8, !tbaa !9
  %43 = load ptr, ptr %9, align 8, !tbaa !9
  %44 = load i8, ptr %43, align 1, !tbaa !67
  %45 = sext i8 %44 to i32
  %46 = icmp ne i32 %45, 0
  %47 = select i1 %46, ptr @.str.50, ptr @.str.13
  %48 = call i32 (ptr, ptr, ...) @fprintf(ptr noundef %33, ptr noundef @.str.49, ptr noundef %34, i32 noundef %40, ptr noundef %41, ptr noundef %42, ptr noundef %47) #10
  %49 = load ptr, ptr %4, align 8, !tbaa !71
  %50 = getelementptr inbounds nuw %struct.rev_info, ptr %49, i32 0, i32 42
  %51 = load ptr, ptr %50, align 8, !tbaa !130
  call void @graph_show_oneline(ptr noundef %51)
  %52 = load ptr, ptr %9, align 8, !tbaa !9
  %53 = load i8, ptr %52, align 1, !tbaa !67
  %54 = sext i8 %53 to i32
  %55 = icmp ne i32 %54, 0
  br i1 %55, label %56, label %59

56:                                               ; preds = %27
  %57 = load ptr, ptr %9, align 8, !tbaa !9
  %58 = getelementptr inbounds i8, ptr %57, i64 1
  br label %61

59:                                               ; preds = %27
  %60 = load ptr, ptr %9, align 8, !tbaa !9
  br label %61

61:                                               ; preds = %59, %56
  %62 = phi ptr [ %58, %56 ], [ %60, %59 ]
  store ptr %62, ptr %6, align 8, !tbaa !9
  br label %23, !llvm.loop !232

63:                                               ; preds = %23
  call void @llvm.lifetime.end.p0(i64 8, ptr %9) #10
  call void @llvm.lifetime.end.p0(i64 8, ptr %8) #10
  call void @llvm.lifetime.end.p0(i64 8, ptr %7) #10
  ret void
}