; Function Attrs: nounwind uwtable
define internal fastcc void @show_sig_lines(ptr noundef readonly captures(none) %0, i32 noundef %1, ptr noundef %2) unnamed_addr #0 {
  %4 = getelementptr inbounds nuw i8, ptr %0, i64 1716
  %5 = load i32, ptr %4, align 4, !tbaa !96
  %.not = icmp eq i32 %1, 0
  %6 = select i1 %.not, i32 3, i32 7
  %7 = tail call ptr @diff_get_color(i32 noundef %5, i32 noundef %6) #15
  %8 = load i32, ptr %4, align 4, !tbaa !96
  %9 = tail call ptr @diff_get_color(i32 noundef %8, i32 noundef 0) #15
  %10 = load i8, ptr %2, align 1, !tbaa !32
  %.not1518 = icmp eq i8 %10, 0
  br i1 %.not1518, label %._crit_edge, label %.lr.ph

.lr.ph:                                           ; preds = %3
  %11 = getelementptr inbounds nuw i8, ptr %0, i64 1912
  %12 = getelementptr inbounds nuw i8, ptr %0, i64 1400
  br label %13

13:                                               ; preds = %.lr.ph, %13
  %.019 = phi ptr [ %2, %.lr.ph ], [ %25, %13 ]
  %14 = tail call ptr @strchrnul(ptr noundef nonnull %.019, i32 noundef 10) #16
  %15 = load ptr, ptr %11, align 8, !tbaa !95
  %16 = ptrtoint ptr %14 to i64
  %17 = ptrtoint ptr %.019 to i64
  %18 = sub i64 %16, %17
  %19 = trunc i64 %18 to i32
  %20 = load i8, ptr %14, align 1, !tbaa !32
  %.not16 = icmp eq i8 %20, 0
  %21 = select i1 %.not16, ptr @.str.13, ptr @.str.50
  %22 = tail call i32 (ptr, ptr, ...) @fprintf(ptr noundef %15, ptr noundef nonnull @.str.49, ptr noundef %7, i32 noundef %19, ptr noundef nonnull %.019, ptr noundef %9, ptr noundef nonnull %21) #15
  %23 = load ptr, ptr %12, align 8, !tbaa !107
  tail call void @graph_show_oneline(ptr noundef %23) #15
  %24 = load i8, ptr %14, align 1, !tbaa !32
  %.not17 = icmp ne i8 %24, 0
  %.idx = zext i1 %.not17 to i64
  %25 = getelementptr inbounds nuw i8, ptr %14, i64 %.idx
  %26 = load i8, ptr %25, align 1, !tbaa !32
  %.not15 = icmp eq i8 %26, 0
  br i1 %.not15, label %._crit_edge, label %13, !llvm.loop !221

._crit_edge:                                      ; preds = %13, %3
  ret void
}